
cvic03.elf:     file format elf32-littlearm

Sections:
Idx Name          Size      VMA       LMA       File off  Algn
  0 .isr_vector   000000c0  08000000  08000000  00010000  2**0
                  CONTENTS, ALLOC, LOAD, READONLY, DATA
  1 .text         0000041c  080000c0  080000c0  000100c0  2**2
                  CONTENTS, ALLOC, LOAD, READONLY, CODE
  2 .rodata       00000078  080004dc  080004dc  000104dc  2**2
                  CONTENTS, ALLOC, LOAD, READONLY, DATA
  3 .ARM.extab    00000000  08000554  08000554  0001055c  2**0
                  CONTENTS
  4 .ARM          00000000  08000554  08000554  0001055c  2**0
                  CONTENTS
  5 .preinit_array 00000000  08000554  0800055c  0001055c  2**0
                  CONTENTS, ALLOC, LOAD, DATA
  6 .init_array   00000004  08000554  08000554  00010554  2**2
                  CONTENTS, ALLOC, LOAD, DATA
  7 .fini_array   00000004  08000558  08000558  00010558  2**2
                  CONTENTS, ALLOC, LOAD, DATA
  8 .data         00000000  20000000  20000000  0001055c  2**0
                  CONTENTS, ALLOC, LOAD, DATA
  9 .bss          0000001c  20000000  0800055c  00020000  2**2
                  ALLOC
 10 ._user_heap_stack 00000604  2000001c  0800055c  0002001c  2**0
                  ALLOC
 11 .ARM.attributes 00000028  00000000  00000000  0001055c  2**0
                  CONTENTS, READONLY
 12 .debug_info   000005e2  00000000  00000000  00010584  2**0
                  CONTENTS, READONLY, DEBUGGING
 13 .debug_abbrev 000002e1  00000000  00000000  00010b66  2**0
                  CONTENTS, READONLY, DEBUGGING
 14 .debug_aranges 000000a0  00000000  00000000  00010e48  2**3
                  CONTENTS, READONLY, DEBUGGING
 15 .debug_ranges 00000068  00000000  00000000  00010ee8  2**3
                  CONTENTS, READONLY, DEBUGGING
 16 .debug_macro  00004818  00000000  00000000  00010f50  2**0
                  CONTENTS, READONLY, DEBUGGING
 17 .debug_line   00000e48  00000000  00000000  00015768  2**0
                  CONTENTS, READONLY, DEBUGGING
 18 .debug_str    0001829a  00000000  00000000  000165b0  2**0
                  CONTENTS, READONLY, DEBUGGING
 19 .comment      0000007b  00000000  00000000  0002e84a  2**0
                  CONTENTS, READONLY
 20 .debug_frame  00000134  00000000  00000000  0002e8c8  2**2
                  CONTENTS, READONLY, DEBUGGING

Disassembly of section .text:

080000c0 <__do_global_dtors_aux>:
 80000c0:	b510      	push	{r4, lr}
 80000c2:	4c06      	ldr	r4, [pc, #24]	; (80000dc <__do_global_dtors_aux+0x1c>)
 80000c4:	7823      	ldrb	r3, [r4, #0]
 80000c6:	2b00      	cmp	r3, #0
 80000c8:	d107      	bne.n	80000da <__do_global_dtors_aux+0x1a>
 80000ca:	4b05      	ldr	r3, [pc, #20]	; (80000e0 <__do_global_dtors_aux+0x20>)
 80000cc:	2b00      	cmp	r3, #0
 80000ce:	d002      	beq.n	80000d6 <__do_global_dtors_aux+0x16>
 80000d0:	4804      	ldr	r0, [pc, #16]	; (80000e4 <__do_global_dtors_aux+0x24>)
 80000d2:	e000      	b.n	80000d6 <__do_global_dtors_aux+0x16>
 80000d4:	bf00      	nop
 80000d6:	2301      	movs	r3, #1
 80000d8:	7023      	strb	r3, [r4, #0]
 80000da:	bd10      	pop	{r4, pc}
 80000dc:	20000000 	.word	0x20000000
 80000e0:	00000000 	.word	0x00000000
 80000e4:	080004c4 	.word	0x080004c4

080000e8 <frame_dummy>:
 80000e8:	4b04      	ldr	r3, [pc, #16]	; (80000fc <frame_dummy+0x14>)
 80000ea:	b510      	push	{r4, lr}
 80000ec:	2b00      	cmp	r3, #0
 80000ee:	d003      	beq.n	80000f8 <frame_dummy+0x10>
 80000f0:	4903      	ldr	r1, [pc, #12]	; (8000100 <frame_dummy+0x18>)
 80000f2:	4804      	ldr	r0, [pc, #16]	; (8000104 <frame_dummy+0x1c>)
 80000f4:	e000      	b.n	80000f8 <frame_dummy+0x10>
 80000f6:	bf00      	nop
 80000f8:	bd10      	pop	{r4, pc}
 80000fa:	46c0      	nop			; (mov r8, r8)
 80000fc:	00000000 	.word	0x00000000
 8000100:	20000004 	.word	0x20000004
 8000104:	080004c4 	.word	0x080004c4

08000108 <__udivsi3>:
 8000108:	2200      	movs	r2, #0
 800010a:	0843      	lsrs	r3, r0, #1
 800010c:	428b      	cmp	r3, r1
 800010e:	d374      	bcc.n	80001fa <__udivsi3+0xf2>
 8000110:	0903      	lsrs	r3, r0, #4
 8000112:	428b      	cmp	r3, r1
 8000114:	d35f      	bcc.n	80001d6 <__udivsi3+0xce>
 8000116:	0a03      	lsrs	r3, r0, #8
 8000118:	428b      	cmp	r3, r1
 800011a:	d344      	bcc.n	80001a6 <__udivsi3+0x9e>
 800011c:	0b03      	lsrs	r3, r0, #12
 800011e:	428b      	cmp	r3, r1
 8000120:	d328      	bcc.n	8000174 <__udivsi3+0x6c>
 8000122:	0c03      	lsrs	r3, r0, #16
 8000124:	428b      	cmp	r3, r1
 8000126:	d30d      	bcc.n	8000144 <__udivsi3+0x3c>
 8000128:	22ff      	movs	r2, #255	; 0xff
 800012a:	0209      	lsls	r1, r1, #8
 800012c:	ba12      	rev	r2, r2
 800012e:	0c03      	lsrs	r3, r0, #16
 8000130:	428b      	cmp	r3, r1
 8000132:	d302      	bcc.n	800013a <__udivsi3+0x32>
 8000134:	1212      	asrs	r2, r2, #8
 8000136:	0209      	lsls	r1, r1, #8
 8000138:	d065      	beq.n	8000206 <__udivsi3+0xfe>
 800013a:	0b03      	lsrs	r3, r0, #12
 800013c:	428b      	cmp	r3, r1
 800013e:	d319      	bcc.n	8000174 <__udivsi3+0x6c>
 8000140:	e000      	b.n	8000144 <__udivsi3+0x3c>
 8000142:	0a09      	lsrs	r1, r1, #8
 8000144:	0bc3      	lsrs	r3, r0, #15
 8000146:	428b      	cmp	r3, r1
 8000148:	d301      	bcc.n	800014e <__udivsi3+0x46>
 800014a:	03cb      	lsls	r3, r1, #15
 800014c:	1ac0      	subs	r0, r0, r3
 800014e:	4152      	adcs	r2, r2
 8000150:	0b83      	lsrs	r3, r0, #14
 8000152:	428b      	cmp	r3, r1
 8000154:	d301      	bcc.n	800015a <__udivsi3+0x52>
 8000156:	038b      	lsls	r3, r1, #14
 8000158:	1ac0      	subs	r0, r0, r3
 800015a:	4152      	adcs	r2, r2
 800015c:	0b43      	lsrs	r3, r0, #13
 800015e:	428b      	cmp	r3, r1
 8000160:	d301      	bcc.n	8000166 <__udivsi3+0x5e>
 8000162:	034b      	lsls	r3, r1, #13
 8000164:	1ac0      	subs	r0, r0, r3
 8000166:	4152      	adcs	r2, r2
 8000168:	0b03      	lsrs	r3, r0, #12
 800016a:	428b      	cmp	r3, r1
 800016c:	d301      	bcc.n	8000172 <__udivsi3+0x6a>
 800016e:	030b      	lsls	r3, r1, #12
 8000170:	1ac0      	subs	r0, r0, r3
 8000172:	4152      	adcs	r2, r2
 8000174:	0ac3      	lsrs	r3, r0, #11
 8000176:	428b      	cmp	r3, r1
 8000178:	d301      	bcc.n	800017e <__udivsi3+0x76>
 800017a:	02cb      	lsls	r3, r1, #11
 800017c:	1ac0      	subs	r0, r0, r3
 800017e:	4152      	adcs	r2, r2
 8000180:	0a83      	lsrs	r3, r0, #10
 8000182:	428b      	cmp	r3, r1
 8000184:	d301      	bcc.n	800018a <__udivsi3+0x82>
 8000186:	028b      	lsls	r3, r1, #10
 8000188:	1ac0      	subs	r0, r0, r3
 800018a:	4152      	adcs	r2, r2
 800018c:	0a43      	lsrs	r3, r0, #9
 800018e:	428b      	cmp	r3, r1
 8000190:	d301      	bcc.n	8000196 <__udivsi3+0x8e>
 8000192:	024b      	lsls	r3, r1, #9
 8000194:	1ac0      	subs	r0, r0, r3
 8000196:	4152      	adcs	r2, r2
 8000198:	0a03      	lsrs	r3, r0, #8
 800019a:	428b      	cmp	r3, r1
 800019c:	d301      	bcc.n	80001a2 <__udivsi3+0x9a>
 800019e:	020b      	lsls	r3, r1, #8
 80001a0:	1ac0      	subs	r0, r0, r3
 80001a2:	4152      	adcs	r2, r2
 80001a4:	d2cd      	bcs.n	8000142 <__udivsi3+0x3a>
 80001a6:	09c3      	lsrs	r3, r0, #7
 80001a8:	428b      	cmp	r3, r1
 80001aa:	d301      	bcc.n	80001b0 <__udivsi3+0xa8>
 80001ac:	01cb      	lsls	r3, r1, #7
 80001ae:	1ac0      	subs	r0, r0, r3
 80001b0:	4152      	adcs	r2, r2
 80001b2:	0983      	lsrs	r3, r0, #6
 80001b4:	428b      	cmp	r3, r1
 80001b6:	d301      	bcc.n	80001bc <__udivsi3+0xb4>
 80001b8:	018b      	lsls	r3, r1, #6
 80001ba:	1ac0      	subs	r0, r0, r3
 80001bc:	4152      	adcs	r2, r2
 80001be:	0943      	lsrs	r3, r0, #5
 80001c0:	428b      	cmp	r3, r1
 80001c2:	d301      	bcc.n	80001c8 <__udivsi3+0xc0>
 80001c4:	014b      	lsls	r3, r1, #5
 80001c6:	1ac0      	subs	r0, r0, r3
 80001c8:	4152      	adcs	r2, r2
 80001ca:	0903      	lsrs	r3, r0, #4
 80001cc:	428b      	cmp	r3, r1
 80001ce:	d301      	bcc.n	80001d4 <__udivsi3+0xcc>
 80001d0:	010b      	lsls	r3, r1, #4
 80001d2:	1ac0      	subs	r0, r0, r3
 80001d4:	4152      	adcs	r2, r2
 80001d6:	08c3      	lsrs	r3, r0, #3
 80001d8:	428b      	cmp	r3, r1
 80001da:	d301      	bcc.n	80001e0 <__udivsi3+0xd8>
 80001dc:	00cb      	lsls	r3, r1, #3
 80001de:	1ac0      	subs	r0, r0, r3
 80001e0:	4152      	adcs	r2, r2
 80001e2:	0883      	lsrs	r3, r0, #2
 80001e4:	428b      	cmp	r3, r1
 80001e6:	d301      	bcc.n	80001ec <__udivsi3+0xe4>
 80001e8:	008b      	lsls	r3, r1, #2
 80001ea:	1ac0      	subs	r0, r0, r3
 80001ec:	4152      	adcs	r2, r2
 80001ee:	0843      	lsrs	r3, r0, #1
 80001f0:	428b      	cmp	r3, r1
 80001f2:	d301      	bcc.n	80001f8 <__udivsi3+0xf0>
 80001f4:	004b      	lsls	r3, r1, #1
 80001f6:	1ac0      	subs	r0, r0, r3
 80001f8:	4152      	adcs	r2, r2
 80001fa:	1a41      	subs	r1, r0, r1
 80001fc:	d200      	bcs.n	8000200 <__udivsi3+0xf8>
 80001fe:	4601      	mov	r1, r0
 8000200:	4152      	adcs	r2, r2
 8000202:	4610      	mov	r0, r2
 8000204:	4770      	bx	lr
 8000206:	e7ff      	b.n	8000208 <__udivsi3+0x100>
 8000208:	b501      	push	{r0, lr}
 800020a:	2000      	movs	r0, #0
 800020c:	f000 f806 	bl	800021c <__aeabi_idiv0>
 8000210:	bd02      	pop	{r1, pc}
 8000212:	46c0      	nop			; (mov r8, r8)

08000214 <__aeabi_uidivmod>:
 8000214:	2900      	cmp	r1, #0
 8000216:	d0f7      	beq.n	8000208 <__udivsi3+0x100>
 8000218:	e776      	b.n	8000108 <__udivsi3>
 800021a:	4770      	bx	lr

0800021c <__aeabi_idiv0>:
 800021c:	4770      	bx	lr
 800021e:	46c0      	nop			; (mov r8, r8)

08000220 <main>:
#include <stm32f0xx.h>
#include "sct.h"


int main(void)
{
 8000220:	b580      	push	{r7, lr}
 8000222:	b082      	sub	sp, #8
 8000224:	af00      	add	r7, sp, #0
	sct_init();
 8000226:	f000 f81f 	bl	8000268 <sct_init>
//	sct_led(0x7A5C36DE);
//	for (volatile uint32_t i = 0; i < 300000; i++) {}

	for(;;)
	{
		for (uint32_t i = 0; i < 1000; i=i+111)
 800022a:	2300      	movs	r3, #0
 800022c:	607b      	str	r3, [r7, #4]
 800022e:	e011      	b.n	8000254 <main+0x34>
		{
			sct_value(i);
 8000230:	687b      	ldr	r3, [r7, #4]
 8000232:	b29b      	uxth	r3, r3
 8000234:	0018      	movs	r0, r3
 8000236:	f000 f865 	bl	8000304 <sct_value>
			for (uint32_t j = 0; j < 300000; j++) {
 800023a:	2300      	movs	r3, #0
 800023c:	603b      	str	r3, [r7, #0]
 800023e:	e002      	b.n	8000246 <main+0x26>
 8000240:	683b      	ldr	r3, [r7, #0]
 8000242:	3301      	adds	r3, #1
 8000244:	603b      	str	r3, [r7, #0]
 8000246:	683b      	ldr	r3, [r7, #0]
 8000248:	4a05      	ldr	r2, [pc, #20]	; (8000260 <main+0x40>)
 800024a:	4293      	cmp	r3, r2
 800024c:	d9f8      	bls.n	8000240 <main+0x20>
		for (uint32_t i = 0; i < 1000; i=i+111)
 800024e:	687b      	ldr	r3, [r7, #4]
 8000250:	336f      	adds	r3, #111	; 0x6f
 8000252:	607b      	str	r3, [r7, #4]
 8000254:	687b      	ldr	r3, [r7, #4]
 8000256:	4a03      	ldr	r2, [pc, #12]	; (8000264 <main+0x44>)
 8000258:	4293      	cmp	r3, r2
 800025a:	d9e9      	bls.n	8000230 <main+0x10>
 800025c:	e7e5      	b.n	800022a <main+0xa>
 800025e:	46c0      	nop			; (mov r8, r8)
 8000260:	000493df 	.word	0x000493df
 8000264:	000003e7 	.word	0x000003e7

08000268 <sct_init>:
#define sct_sdi(x) do { if (x) GPIOB->BSRR = (1 << 4); else GPIOB->BRR = (1 << 4); } while (0)
#define sct_clk(x) do { if (x) GPIOB->BSRR = (1 << 3); else GPIOB->BRR = (1 << 3); } while (0)
#define sct_noe(x) do { if (x) GPIOB->BSRR = (1 << 10); else GPIOB->BRR = (1 << 10); } while (0)

void sct_init(void)
{
 8000268:	b580      	push	{r7, lr}
 800026a:	af00      	add	r7, sp, #0
	//SysTick_Config(8000); // 1ms
	RCC->AHBENR |=  RCC_AHBENR_GPIOBEN ;
 800026c:	4b0b      	ldr	r3, [pc, #44]	; (800029c <sct_init+0x34>)
 800026e:	695a      	ldr	r2, [r3, #20]
 8000270:	4b0a      	ldr	r3, [pc, #40]	; (800029c <sct_init+0x34>)
 8000272:	2180      	movs	r1, #128	; 0x80
 8000274:	02c9      	lsls	r1, r1, #11
 8000276:	430a      	orrs	r2, r1
 8000278:	615a      	str	r2, [r3, #20]
	GPIOB->MODER |= GPIO_MODER_MODER4_0 | GPIO_MODER_MODER3_0 | GPIO_MODER_MODER5_0 | GPIO_MODER_MODER10_0 ;
 800027a:	4b09      	ldr	r3, [pc, #36]	; (80002a0 <sct_init+0x38>)
 800027c:	681a      	ldr	r2, [r3, #0]
 800027e:	4b08      	ldr	r3, [pc, #32]	; (80002a0 <sct_init+0x38>)
 8000280:	4908      	ldr	r1, [pc, #32]	; (80002a4 <sct_init+0x3c>)
 8000282:	430a      	orrs	r2, r1
 8000284:	601a      	str	r2, [r3, #0]
	sct_led(0);
 8000286:	2000      	movs	r0, #0
 8000288:	f000 f80e 	bl	80002a8 <sct_led>
	sct_noe(0);
 800028c:	4b04      	ldr	r3, [pc, #16]	; (80002a0 <sct_init+0x38>)
 800028e:	2280      	movs	r2, #128	; 0x80
 8000290:	00d2      	lsls	r2, r2, #3
 8000292:	629a      	str	r2, [r3, #40]	; 0x28
}
 8000294:	46c0      	nop			; (mov r8, r8)
 8000296:	46bd      	mov	sp, r7
 8000298:	bd80      	pop	{r7, pc}
 800029a:	46c0      	nop			; (mov r8, r8)
 800029c:	40021000 	.word	0x40021000
 80002a0:	48000400 	.word	0x48000400
 80002a4:	00100540 	.word	0x00100540

080002a8 <sct_led>:

void sct_led(uint32_t value)
{
 80002a8:	b580      	push	{r7, lr}
 80002aa:	b084      	sub	sp, #16
 80002ac:	af00      	add	r7, sp, #0
 80002ae:	6078      	str	r0, [r7, #4]
	sct_nla(1);
 80002b0:	4b13      	ldr	r3, [pc, #76]	; (8000300 <sct_led+0x58>)
 80002b2:	2220      	movs	r2, #32
 80002b4:	619a      	str	r2, [r3, #24]
	for (uint32_t i = 0; i < 32; i++)
 80002b6:	2300      	movs	r3, #0
 80002b8:	60fb      	str	r3, [r7, #12]
 80002ba:	e016      	b.n	80002ea <sct_led+0x42>
	{
		if (value & 1)
 80002bc:	687b      	ldr	r3, [r7, #4]
 80002be:	2201      	movs	r2, #1
 80002c0:	4013      	ands	r3, r2
 80002c2:	d003      	beq.n	80002cc <sct_led+0x24>
		{
			sct_sdi(1);
 80002c4:	4b0e      	ldr	r3, [pc, #56]	; (8000300 <sct_led+0x58>)
 80002c6:	2210      	movs	r2, #16
 80002c8:	619a      	str	r2, [r3, #24]
 80002ca:	e002      	b.n	80002d2 <sct_led+0x2a>
		}
		else
		{
			sct_sdi(0);
 80002cc:	4b0c      	ldr	r3, [pc, #48]	; (8000300 <sct_led+0x58>)
 80002ce:	2210      	movs	r2, #16
 80002d0:	629a      	str	r2, [r3, #40]	; 0x28
		}
		value >>= 1;
 80002d2:	687b      	ldr	r3, [r7, #4]
 80002d4:	085b      	lsrs	r3, r3, #1
 80002d6:	607b      	str	r3, [r7, #4]

		sct_clk(1);
 80002d8:	4b09      	ldr	r3, [pc, #36]	; (8000300 <sct_led+0x58>)
 80002da:	2208      	movs	r2, #8
 80002dc:	619a      	str	r2, [r3, #24]
		sct_clk(0);
 80002de:	4b08      	ldr	r3, [pc, #32]	; (8000300 <sct_led+0x58>)
 80002e0:	2208      	movs	r2, #8
 80002e2:	629a      	str	r2, [r3, #40]	; 0x28
	for (uint32_t i = 0; i < 32; i++)
 80002e4:	68fb      	ldr	r3, [r7, #12]
 80002e6:	3301      	adds	r3, #1
 80002e8:	60fb      	str	r3, [r7, #12]
 80002ea:	68fb      	ldr	r3, [r7, #12]
 80002ec:	2b1f      	cmp	r3, #31
 80002ee:	d9e5      	bls.n	80002bc <sct_led+0x14>
	}
	sct_nla(0);
 80002f0:	4b03      	ldr	r3, [pc, #12]	; (8000300 <sct_led+0x58>)
 80002f2:	2220      	movs	r2, #32
 80002f4:	629a      	str	r2, [r3, #40]	; 0x28
}
 80002f6:	46c0      	nop			; (mov r8, r8)
 80002f8:	46bd      	mov	sp, r7
 80002fa:	b004      	add	sp, #16
 80002fc:	bd80      	pop	{r7, pc}
 80002fe:	46c0      	nop			; (mov r8, r8)
 8000300:	48000400 	.word	0x48000400

08000304 <sct_value>:
				0b0110000000001111 << 0,
		},
};

void sct_value(uint16_t value)
{
 8000304:	b580      	push	{r7, lr}
 8000306:	b084      	sub	sp, #16
 8000308:	af00      	add	r7, sp, #0
 800030a:	0002      	movs	r2, r0
 800030c:	1dbb      	adds	r3, r7, #6
 800030e:	801a      	strh	r2, [r3, #0]
	uint32_t reg = 0;
 8000310:	2300      	movs	r3, #0
 8000312:	60fb      	str	r3, [r7, #12]
	reg |= reg_values[0][value / 100 % 10];
 8000314:	1dbb      	adds	r3, r7, #6
 8000316:	881b      	ldrh	r3, [r3, #0]
 8000318:	2164      	movs	r1, #100	; 0x64
 800031a:	0018      	movs	r0, r3
 800031c:	f7ff fef4 	bl	8000108 <__udivsi3>
 8000320:	0003      	movs	r3, r0
 8000322:	b29b      	uxth	r3, r3
 8000324:	210a      	movs	r1, #10
 8000326:	0018      	movs	r0, r3
 8000328:	f7ff ff74 	bl	8000214 <__aeabi_uidivmod>
 800032c:	000b      	movs	r3, r1
 800032e:	b29b      	uxth	r3, r3
 8000330:	001a      	movs	r2, r3
 8000332:	4b1a      	ldr	r3, [pc, #104]	; (800039c <sct_value+0x98>)
 8000334:	0092      	lsls	r2, r2, #2
 8000336:	58d3      	ldr	r3, [r2, r3]
 8000338:	68fa      	ldr	r2, [r7, #12]
 800033a:	4313      	orrs	r3, r2
 800033c:	60fb      	str	r3, [r7, #12]
	reg |= reg_values[1][value / 10 % 10];
 800033e:	1dbb      	adds	r3, r7, #6
 8000340:	881b      	ldrh	r3, [r3, #0]
 8000342:	210a      	movs	r1, #10
 8000344:	0018      	movs	r0, r3
 8000346:	f7ff fedf 	bl	8000108 <__udivsi3>
 800034a:	0003      	movs	r3, r0
 800034c:	b29b      	uxth	r3, r3
 800034e:	210a      	movs	r1, #10
 8000350:	0018      	movs	r0, r3
 8000352:	f7ff ff5f 	bl	8000214 <__aeabi_uidivmod>
 8000356:	000b      	movs	r3, r1
 8000358:	b29b      	uxth	r3, r3
 800035a:	001a      	movs	r2, r3
 800035c:	4b0f      	ldr	r3, [pc, #60]	; (800039c <sct_value+0x98>)
 800035e:	320a      	adds	r2, #10
 8000360:	0092      	lsls	r2, r2, #2
 8000362:	58d3      	ldr	r3, [r2, r3]
 8000364:	68fa      	ldr	r2, [r7, #12]
 8000366:	4313      	orrs	r3, r2
 8000368:	60fb      	str	r3, [r7, #12]
	reg |= reg_values[2][value % 10];
 800036a:	1dbb      	adds	r3, r7, #6
 800036c:	881b      	ldrh	r3, [r3, #0]
 800036e:	210a      	movs	r1, #10
 8000370:	0018      	movs	r0, r3
 8000372:	f7ff ff4f 	bl	8000214 <__aeabi_uidivmod>
 8000376:	000b      	movs	r3, r1
 8000378:	b29b      	uxth	r3, r3
 800037a:	001a      	movs	r2, r3
 800037c:	4b07      	ldr	r3, [pc, #28]	; (800039c <sct_value+0x98>)
 800037e:	3214      	adds	r2, #20
 8000380:	0092      	lsls	r2, r2, #2
 8000382:	58d3      	ldr	r3, [r2, r3]
 8000384:	68fa      	ldr	r2, [r7, #12]
 8000386:	4313      	orrs	r3, r2
 8000388:	60fb      	str	r3, [r7, #12]

	sct_led(reg);
 800038a:	68fb      	ldr	r3, [r7, #12]
 800038c:	0018      	movs	r0, r3
 800038e:	f7ff ff8b 	bl	80002a8 <sct_led>
}
 8000392:	46c0      	nop			; (mov r8, r8)
 8000394:	46bd      	mov	sp, r7
 8000396:	b004      	add	sp, #16
 8000398:	bd80      	pop	{r7, pc}
 800039a:	46c0      	nop			; (mov r8, r8)
 800039c:	080004dc 	.word	0x080004dc

080003a0 <SystemInit>:
  *         Initialize the default HSI clock source, vector table location and the PLL configuration is reset.
  * @param  None
  * @retval None
  */
void SystemInit(void)
{
 80003a0:	b580      	push	{r7, lr}
 80003a2:	af00      	add	r7, sp, #0
  /* Reset the RCC clock configuration to the default reset state ------------*/
  /* Set HSION bit */
  RCC->CR |= (uint32_t)0x00000001;
 80003a4:	4b1a      	ldr	r3, [pc, #104]	; (8000410 <SystemInit+0x70>)
 80003a6:	681a      	ldr	r2, [r3, #0]
 80003a8:	4b19      	ldr	r3, [pc, #100]	; (8000410 <SystemInit+0x70>)
 80003aa:	2101      	movs	r1, #1
 80003ac:	430a      	orrs	r2, r1
 80003ae:	601a      	str	r2, [r3, #0]
#if defined (STM32F051x8) || defined (STM32F058x8)
  /* Reset SW[1:0], HPRE[3:0], PPRE[2:0], ADCPRE and MCOSEL[2:0] bits */
  RCC->CFGR &= (uint32_t)0xF8FFB80C;
#else
  /* Reset SW[1:0], HPRE[3:0], PPRE[2:0], ADCPRE, MCOSEL[2:0], MCOPRE[2:0] and PLLNODIV bits */
  RCC->CFGR &= (uint32_t)0x08FFB80C;
 80003b0:	4b17      	ldr	r3, [pc, #92]	; (8000410 <SystemInit+0x70>)
 80003b2:	685a      	ldr	r2, [r3, #4]
 80003b4:	4b16      	ldr	r3, [pc, #88]	; (8000410 <SystemInit+0x70>)
 80003b6:	4917      	ldr	r1, [pc, #92]	; (8000414 <SystemInit+0x74>)
 80003b8:	400a      	ands	r2, r1
 80003ba:	605a      	str	r2, [r3, #4]
#endif /* STM32F051x8 or STM32F058x8 */
  
  /* Reset HSEON, CSSON and PLLON bits */
  RCC->CR &= (uint32_t)0xFEF6FFFF;
 80003bc:	4b14      	ldr	r3, [pc, #80]	; (8000410 <SystemInit+0x70>)
 80003be:	681a      	ldr	r2, [r3, #0]
 80003c0:	4b13      	ldr	r3, [pc, #76]	; (8000410 <SystemInit+0x70>)
 80003c2:	4915      	ldr	r1, [pc, #84]	; (8000418 <SystemInit+0x78>)
 80003c4:	400a      	ands	r2, r1
 80003c6:	601a      	str	r2, [r3, #0]

  /* Reset HSEBYP bit */
  RCC->CR &= (uint32_t)0xFFFBFFFF;
 80003c8:	4b11      	ldr	r3, [pc, #68]	; (8000410 <SystemInit+0x70>)
 80003ca:	681a      	ldr	r2, [r3, #0]
 80003cc:	4b10      	ldr	r3, [pc, #64]	; (8000410 <SystemInit+0x70>)
 80003ce:	4913      	ldr	r1, [pc, #76]	; (800041c <SystemInit+0x7c>)
 80003d0:	400a      	ands	r2, r1
 80003d2:	601a      	str	r2, [r3, #0]

  /* Reset PLLSRC, PLLXTPRE and PLLMUL[3:0] bits */
  RCC->CFGR &= (uint32_t)0xFFC0FFFF;
 80003d4:	4b0e      	ldr	r3, [pc, #56]	; (8000410 <SystemInit+0x70>)
 80003d6:	685a      	ldr	r2, [r3, #4]
 80003d8:	4b0d      	ldr	r3, [pc, #52]	; (8000410 <SystemInit+0x70>)
 80003da:	4911      	ldr	r1, [pc, #68]	; (8000420 <SystemInit+0x80>)
 80003dc:	400a      	ands	r2, r1
 80003de:	605a      	str	r2, [r3, #4]

  /* Reset PREDIV[3:0] bits */
  RCC->CFGR2 &= (uint32_t)0xFFFFFFF0;
 80003e0:	4b0b      	ldr	r3, [pc, #44]	; (8000410 <SystemInit+0x70>)
 80003e2:	6ada      	ldr	r2, [r3, #44]	; 0x2c
 80003e4:	4b0a      	ldr	r3, [pc, #40]	; (8000410 <SystemInit+0x70>)
 80003e6:	210f      	movs	r1, #15
 80003e8:	438a      	bics	r2, r1
 80003ea:	62da      	str	r2, [r3, #44]	; 0x2c
#elif defined (STM32F091xC) || defined (STM32F098xx)
  /* Reset USART3SW[1:0], USART2SW[1:0], USART1SW[1:0], I2C1SW, CECSW and ADCSW bits */
  RCC->CFGR3 &= (uint32_t)0xFFF0FEAC;
#elif defined (STM32F030x6) || defined (STM32F030x8) || defined (STM32F031x6) || defined (STM32F038xx) || defined (STM32F030xC)
  /* Reset USART1SW[1:0], I2C1SW and ADCSW bits */
  RCC->CFGR3 &= (uint32_t)0xFFFFFEEC;
 80003ec:	4b08      	ldr	r3, [pc, #32]	; (8000410 <SystemInit+0x70>)
 80003ee:	6b1a      	ldr	r2, [r3, #48]	; 0x30
 80003f0:	4b07      	ldr	r3, [pc, #28]	; (8000410 <SystemInit+0x70>)
 80003f2:	490c      	ldr	r1, [pc, #48]	; (8000424 <SystemInit+0x84>)
 80003f4:	400a      	ands	r2, r1
 80003f6:	631a      	str	r2, [r3, #48]	; 0x30
#else
 #warning "No target selected"
#endif

  /* Reset HSI14 bit */
  RCC->CR2 &= (uint32_t)0xFFFFFFFE;
 80003f8:	4b05      	ldr	r3, [pc, #20]	; (8000410 <SystemInit+0x70>)
 80003fa:	6b5a      	ldr	r2, [r3, #52]	; 0x34
 80003fc:	4b04      	ldr	r3, [pc, #16]	; (8000410 <SystemInit+0x70>)
 80003fe:	2101      	movs	r1, #1
 8000400:	438a      	bics	r2, r1
 8000402:	635a      	str	r2, [r3, #52]	; 0x34

  /* Disable all interrupts */
  RCC->CIR = 0x00000000;
 8000404:	4b02      	ldr	r3, [pc, #8]	; (8000410 <SystemInit+0x70>)
 8000406:	2200      	movs	r2, #0
 8000408:	609a      	str	r2, [r3, #8]

}
 800040a:	46c0      	nop			; (mov r8, r8)
 800040c:	46bd      	mov	sp, r7
 800040e:	bd80      	pop	{r7, pc}
 8000410:	40021000 	.word	0x40021000
 8000414:	08ffb80c 	.word	0x08ffb80c
 8000418:	fef6ffff 	.word	0xfef6ffff
 800041c:	fffbffff 	.word	0xfffbffff
 8000420:	ffc0ffff 	.word	0xffc0ffff
 8000424:	fffffeec 	.word	0xfffffeec

08000428 <Reset_Handler>:

  .section .text.Reset_Handler
  .weak Reset_Handler
  .type Reset_Handler, %function
Reset_Handler:
  ldr   r0, =_estack
 8000428:	480d      	ldr	r0, [pc, #52]	; (8000460 <LoopForever+0x2>)
  mov   sp, r0          /* set stack pointer */
 800042a:	4685      	mov	sp, r0

/* Copy the data segment initializers from flash to SRAM */
  ldr r0, =_sdata
 800042c:	480d      	ldr	r0, [pc, #52]	; (8000464 <LoopForever+0x6>)
  ldr r1, =_edata
 800042e:	490e      	ldr	r1, [pc, #56]	; (8000468 <LoopForever+0xa>)
  ldr r2, =_sidata
 8000430:	4a0e      	ldr	r2, [pc, #56]	; (800046c <LoopForever+0xe>)
  movs r3, #0
 8000432:	2300      	movs	r3, #0
  b LoopCopyDataInit
 8000434:	e002      	b.n	800043c <LoopCopyDataInit>

08000436 <CopyDataInit>:

CopyDataInit:
  ldr r4, [r2, r3]
 8000436:	58d4      	ldr	r4, [r2, r3]
  str r4, [r0, r3]
 8000438:	50c4      	str	r4, [r0, r3]
  adds r3, r3, #4
 800043a:	3304      	adds	r3, #4

0800043c <LoopCopyDataInit>:

LoopCopyDataInit:
  adds r4, r0, r3
 800043c:	18c4      	adds	r4, r0, r3
  cmp r4, r1
 800043e:	428c      	cmp	r4, r1
  bcc CopyDataInit
 8000440:	d3f9      	bcc.n	8000436 <CopyDataInit>

/* Zero fill the bss segment. */
  ldr r2, =_sbss
 8000442:	4a0b      	ldr	r2, [pc, #44]	; (8000470 <LoopForever+0x12>)
  ldr r4, =_ebss
 8000444:	4c0b      	ldr	r4, [pc, #44]	; (8000474 <LoopForever+0x16>)
  movs r3, #0
 8000446:	2300      	movs	r3, #0
  b LoopFillZerobss
 8000448:	e001      	b.n	800044e <LoopFillZerobss>

0800044a <FillZerobss>:

FillZerobss:
  str  r3, [r2]
 800044a:	6013      	str	r3, [r2, #0]
  adds r2, r2, #4
 800044c:	3204      	adds	r2, #4

0800044e <LoopFillZerobss>:

LoopFillZerobss:
  cmp r2, r4
 800044e:	42a2      	cmp	r2, r4
  bcc FillZerobss
 8000450:	d3fb      	bcc.n	800044a <FillZerobss>

/* Call the clock system intitialization function.*/
  bl  SystemInit
 8000452:	f7ff ffa5 	bl	80003a0 <SystemInit>
/* Call static constructors */
  bl __libc_init_array
 8000456:	f000 f811 	bl	800047c <__libc_init_array>
/* Call the application's entry point.*/
  bl main
 800045a:	f7ff fee1 	bl	8000220 <main>

0800045e <LoopForever>:

LoopForever:
    b LoopForever
 800045e:	e7fe      	b.n	800045e <LoopForever>
  ldr   r0, =_estack
 8000460:	20002000 	.word	0x20002000
  ldr r0, =_sdata
 8000464:	20000000 	.word	0x20000000
  ldr r1, =_edata
 8000468:	20000000 	.word	0x20000000
  ldr r2, =_sidata
 800046c:	0800055c 	.word	0x0800055c
  ldr r2, =_sbss
 8000470:	20000000 	.word	0x20000000
  ldr r4, =_ebss
 8000474:	2000001c 	.word	0x2000001c

08000478 <ADC_IRQHandler>:
 * @retval : None
*/
  .section .text.Default_Handler,"ax",%progbits
Default_Handler:
Infinite_Loop:
  b Infinite_Loop
 8000478:	e7fe      	b.n	8000478 <ADC_IRQHandler>
	...

0800047c <__libc_init_array>:
 800047c:	b570      	push	{r4, r5, r6, lr}
 800047e:	2600      	movs	r6, #0
 8000480:	4d0c      	ldr	r5, [pc, #48]	; (80004b4 <__libc_init_array+0x38>)
 8000482:	4c0d      	ldr	r4, [pc, #52]	; (80004b8 <__libc_init_array+0x3c>)
 8000484:	1b64      	subs	r4, r4, r5
 8000486:	10a4      	asrs	r4, r4, #2
 8000488:	42a6      	cmp	r6, r4
 800048a:	d109      	bne.n	80004a0 <__libc_init_array+0x24>
 800048c:	2600      	movs	r6, #0
 800048e:	f000 f819 	bl	80004c4 <_init>
 8000492:	4d0a      	ldr	r5, [pc, #40]	; (80004bc <__libc_init_array+0x40>)
 8000494:	4c0a      	ldr	r4, [pc, #40]	; (80004c0 <__libc_init_array+0x44>)
 8000496:	1b64      	subs	r4, r4, r5
 8000498:	10a4      	asrs	r4, r4, #2
 800049a:	42a6      	cmp	r6, r4
 800049c:	d105      	bne.n	80004aa <__libc_init_array+0x2e>
 800049e:	bd70      	pop	{r4, r5, r6, pc}
 80004a0:	00b3      	lsls	r3, r6, #2
 80004a2:	58eb      	ldr	r3, [r5, r3]
 80004a4:	4798      	blx	r3
 80004a6:	3601      	adds	r6, #1
 80004a8:	e7ee      	b.n	8000488 <__libc_init_array+0xc>
 80004aa:	00b3      	lsls	r3, r6, #2
 80004ac:	58eb      	ldr	r3, [r5, r3]
 80004ae:	4798      	blx	r3
 80004b0:	3601      	adds	r6, #1
 80004b2:	e7f2      	b.n	800049a <__libc_init_array+0x1e>
 80004b4:	08000554 	.word	0x08000554
 80004b8:	08000554 	.word	0x08000554
 80004bc:	08000554 	.word	0x08000554
 80004c0:	08000558 	.word	0x08000558

080004c4 <_init>:
 80004c4:	b5f8      	push	{r3, r4, r5, r6, r7, lr}
 80004c6:	46c0      	nop			; (mov r8, r8)
 80004c8:	bcf8      	pop	{r3, r4, r5, r6, r7}
 80004ca:	bc08      	pop	{r3}
 80004cc:	469e      	mov	lr, r3
 80004ce:	4770      	bx	lr

080004d0 <_fini>:
 80004d0:	b5f8      	push	{r3, r4, r5, r6, r7, lr}
 80004d2:	46c0      	nop			; (mov r8, r8)
 80004d4:	bcf8      	pop	{r3, r4, r5, r6, r7}
 80004d6:	bc08      	pop	{r3}
 80004d8:	469e      	mov	lr, r3
 80004da:	4770      	bx	lr
